target datalayout = "e-m:e-p270:32:32-p271:32:32-p272:64:64-i64:64-i128:128-f80:128-n8:16:32:64-S128"
target triple = "x86_64-pc-linux-gnu"

%struct.Curl_URL = type { ptr, ptr, ptr, ptr, ptr, ptr, ptr, ptr, ptr, ptr, i64 }

@Curl_cfree = external global ptr, align 8
@Curl_ccalloc = external global ptr, align 8
@Curl_cstrdup = external global ptr, align 8

; Function Attrs: nounwind uwtable
define internal void @free_urlhandle(ptr noundef %0) #0 {
  %2 = alloca ptr, align 8
  store ptr %0, ptr %2, align 8
  %3 = load ptr, ptr @Curl_cfree, align 8
  %4 = load ptr, ptr %2, align 8
  %5 = getelementptr inbounds %struct.Curl_URL, ptr %4, i32 0, i32 0
  %6 = load ptr, ptr %5, align 8
  call void %3(ptr noundef %6)
  %7 = load ptr, ptr @Curl_cfree, align 8
  %8 = load ptr, ptr %2, align 8
  %9 = getelementptr inbounds %struct.Curl_URL, ptr %8, i32 0, i32 1
  %10 = load ptr, ptr %9, align 8
  call void %7(ptr noundef %10)
  %11 = load ptr, ptr @Curl_cfree, align 8
  %12 = load ptr, ptr %2, align 8
  %13 = getelementptr inbounds %struct.Curl_URL, ptr %12, i32 0, i32 2
  %14 = load ptr, ptr %13, align 8
  call void %11(ptr noundef %14)
  %15 = load ptr, ptr @Curl_cfree, align 8
  %16 = load ptr, ptr %2, align 8
  %17 = getelementptr inbounds %struct.Curl_URL, ptr %16, i32 0, i32 3
  %18 = load ptr, ptr %17, align 8
  call void %15(ptr noundef %18)
  %19 = load ptr, ptr @Curl_cfree, align 8
  %20 = load ptr, ptr %2, align 8
  %21 = getelementptr inbounds %struct.Curl_URL, ptr %20, i32 0, i32 4
  %22 = load ptr, ptr %21, align 8
  call void %19(ptr noundef %22)
  %23 = load ptr, ptr @Curl_cfree, align 8
  %24 = load ptr, ptr %2, align 8
  %25 = getelementptr inbounds %struct.Curl_URL, ptr %24, i32 0, i32 5
  %26 = load ptr, ptr %25, align 8
  call void %23(ptr noundef %26)
  %27 = load ptr, ptr @Curl_cfree, align 8
  %28 = load ptr, ptr %2, align 8
  %29 = getelementptr inbounds %struct.Curl_URL, ptr %28, i32 0, i32 6
  %30 = load ptr, ptr %29, align 8
  call void %27(ptr noundef %30)
  %31 = load ptr, ptr @Curl_cfree, align 8
  %32 = load ptr, ptr %2, align 8
  %33 = getelementptr inbounds %struct.Curl_URL, ptr %32, i32 0, i32 7
  %34 = load ptr, ptr %33, align 8
  call void %31(ptr noundef %34)
  %35 = load ptr, ptr @Curl_cfree, align 8
  %36 = load ptr, ptr %2, align 8
  %37 = getelementptr inbounds %struct.Curl_URL, ptr %36, i32 0, i32 8
  %38 = load ptr, ptr %37, align 8
  call void %35(ptr noundef %38)
  %39 = load ptr, ptr @Curl_cfree, align 8
  %40 = load ptr, ptr %2, align 8
  %41 = getelementptr inbounds %struct.Curl_URL, ptr %40, i32 0, i32 9
  %42 = load ptr, ptr %41, align 8
  call void %39(ptr noundef %42)
  ret void
}

; Function Attrs: nounwind uwtable
define dso_local void @curl_url_cleanup(ptr noundef %0) #0 {
  %2 = alloca ptr, align 8
  store ptr %0, ptr %2, align 8
  %3 = load ptr, ptr %2, align 8
  %4 = icmp ne ptr %3, null
  br i1 %4, label %5, label %9

5:                                                ; preds = %1
  %6 = load ptr, ptr %2, align 8
  call void @free_urlhandle(ptr noundef %6)
  %7 = load ptr, ptr @Curl_cfree, align 8
  %8 = load ptr, ptr %2, align 8
  call void %7(ptr noundef %8)
  br label %9

9:                                                ; preds = %5, %1
  ret void
}

; Function Attrs: nounwind uwtable
define dso_local ptr @curl_url_dup(ptr noundef %0) #0 {
  %2 = alloca ptr, align 8
  %3 = alloca ptr, align 8
  %4 = alloca ptr, align 8
  store ptr %0, ptr %3, align 8
  %5 = load ptr, ptr @Curl_ccalloc, align 8
  %6 = call ptr %5(i64 noundef 1, i64 noundef 88)
  store ptr %6, ptr %4, align 8
  %7 = load ptr, ptr %4, align 8
  %8 = icmp ne ptr %7, null
  br i1 %8, label %9, label %225

9:                                                ; preds = %1
  br label %10

10:                                               ; preds = %9
  %11 = load ptr, ptr %3, align 8
  %12 = getelementptr inbounds %struct.Curl_URL, ptr %11, i32 0, i32 0
  %13 = load ptr, ptr %12, align 8
  %14 = icmp ne ptr %13, null
  br i1 %14, label %15, label %29

15:                                               ; preds = %10
  %16 = load ptr, ptr @Curl_cstrdup, align 8
  %17 = load ptr, ptr %3, align 8
  %18 = getelementptr inbounds %struct.Curl_URL, ptr %17, i32 0, i32 0
  %19 = load ptr, ptr %18, align 8
  %20 = call ptr %16(ptr noundef %19)
  %21 = load ptr, ptr %4, align 8
  %22 = getelementptr inbounds %struct.Curl_URL, ptr %21, i32 0, i32 0
  store ptr %20, ptr %22, align 8
  %23 = load ptr, ptr %4, align 8
  %24 = getelementptr inbounds %struct.Curl_URL, ptr %23, i32 0, i32 0
  %25 = load ptr, ptr %24, align 8
  %26 = icmp ne ptr %25, null
  br i1 %26, label %28, label %27

27:                                               ; preds = %15
  br label %227

28:                                               ; preds = %15
  br label %29

29:                                               ; preds = %28, %10
  br label %30

30:                                               ; preds = %29
  br label %31

31:                                               ; preds = %30
  %32 = load ptr, ptr %3, align 8
  %33 = getelementptr inbounds %struct.Curl_URL, ptr %32, i32 0, i32 1
  %34 = load ptr, ptr %33, align 8
  %35 = icmp ne ptr %34, null
  br i1 %35, label %36, label %50

36:                                               ; preds = %31
  %37 = load ptr, ptr @Curl_cstrdup, align 8
  %38 = load ptr, ptr %3, align 8
  %39 = getelementptr inbounds %struct.Curl_URL, ptr %38, i32 0, i32 1
  %40 = load ptr, ptr %39, align 8
  %41 = call ptr %37(ptr noundef %40)
  %42 = load ptr, ptr %4, align 8
  %43 = getelementptr inbounds %struct.Curl_URL, ptr %42, i32 0, i32 1
  store ptr %41, ptr %43, align 8
  %44 = load ptr, ptr %4, align 8
  %45 = getelementptr inbounds %struct.Curl_URL, ptr %44, i32 0, i32 1
  %46 = load ptr, ptr %45, align 8
  %47 = icmp ne ptr %46, null
  br i1 %47, label %49, label %48

48:                                               ; preds = %36
  br label %227

49:                                               ; preds = %36
  br label %50

50:                                               ; preds = %49, %31
  br label %51

51:                                               ; preds = %50
  br label %52

52:                                               ; preds = %51
  %53 = load ptr, ptr %3, align 8
  %54 = getelementptr inbounds %struct.Curl_URL, ptr %53, i32 0, i32 2
  %55 = load ptr, ptr %54, align 8
  %56 = icmp ne ptr %55, null
  br i1 %56, label %57, label %71

57:                                               ; preds = %52
  %58 = load ptr, ptr @Curl_cstrdup, align 8
  %59 = load ptr, ptr %3, align 8
  %60 = getelementptr inbounds %struct.Curl_URL, ptr %59, i32 0, i32 2
  %61 = load ptr, ptr %60, align 8
  %62 = call ptr %58(ptr noundef %61)
  %63 = load ptr, ptr %4, align 8
  %64 = getelementptr inbounds %struct.Curl_URL, ptr %63, i32 0, i32 2
  store ptr %62, ptr %64, align 8
  %65 = load ptr, ptr %4, align 8
  %66 = getelementptr inbounds %struct.Curl_URL, ptr %65, i32 0, i32 2
  %67 = load ptr, ptr %66, align 8
  %68 = icmp ne ptr %67, null
  br i1 %68, label %70, label %69

69:                                               ; preds = %57
  br label %227

70:                                               ; preds = %57
  br label %71

71:                                               ; preds = %70, %52
  br label %72

72:                                               ; preds = %71
  br label %73

73:                                               ; preds = %72
  %74 = load ptr, ptr %3, align 8
  %75 = getelementptr inbounds %struct.Curl_URL, ptr %74, i32 0, i32 3
  %76 = load ptr, ptr %75, align 8
  %77 = icmp ne ptr %76, null
  br i1 %77, label %78, label %92

78:                                               ; preds = %73
  %79 = load ptr, ptr @Curl_cstrdup, align 8
  %80 = load ptr, ptr %3, align 8
  %81 = getelementptr inbounds %struct.Curl_URL, ptr %80, i32 0, i32 3
  %82 = load ptr, ptr %81, align 8
  %83 = call ptr %79(ptr noundef %82)
  %84 = load ptr, ptr %4, align 8
  %85 = getelementptr inbounds %struct.Curl_URL, ptr %84, i32 0, i32 3
  store ptr %83, ptr %85, align 8
  %86 = load ptr, ptr %4, align 8
  %87 = getelementptr inbounds %struct.Curl_URL, ptr %86, i32 0, i32 3
  %88 = load ptr, ptr %87, align 8
  %89 = icmp ne ptr %88, null
  br i1 %89, label %91, label %90

90:                                               ; preds = %78
  br label %227

91:                                               ; preds = %78
  br label %92

92:                                               ; preds = %91, %73
  br label %93

93:                                               ; preds = %92
  br label %94

94:                                               ; preds = %93
  %95 = load ptr, ptr %3, align 8
  %96 = getelementptr inbounds %struct.Curl_URL, ptr %95, i32 0, i32 4
  %97 = load ptr, ptr %96, align 8
  %98 = icmp ne ptr %97, null
  br i1 %98, label %99, label %113

99:                                               ; preds = %94
  %100 = load ptr, ptr @Curl_cstrdup, align 8
  %101 = load ptr, ptr %3, align 8
  %102 = getelementptr inbounds %struct.Curl_URL, ptr %101, i32 0, i32 4
  %103 = load ptr, ptr %102, align 8
  %104 = call ptr %100(ptr noundef %103)
  %105 = load ptr, ptr %4, align 8
  %106 = getelementptr inbounds %struct.Curl_URL, ptr %105, i32 0, i32 4
  store ptr %104, ptr %106, align 8
  %107 = load ptr, ptr %4, align 8
  %108 = getelementptr inbounds %struct.Curl_URL, ptr %107, i32 0, i32 4
  %109 = load ptr, ptr %108, align 8
  %110 = icmp ne ptr %109, null
  br i1 %110, label %112, label %111

111:                                              ; preds = %99
  br label %227

112:                                              ; preds = %99
  br label %113

113:                                              ; preds = %112, %94
  br label %114

114:                                              ; preds = %113
  br label %115

115:                                              ; preds = %114
  %116 = load ptr, ptr %3, align 8
  %117 = getelementptr inbounds %struct.Curl_URL, ptr %116, i32 0, i32 6
  %118 = load ptr, ptr %117, align 8
  %119 = icmp ne ptr %118, null
  br i1 %119, label %120, label %134

120:                                              ; preds = %115
  %121 = load ptr, ptr @Curl_cstrdup, align 8
  %122 = load ptr, ptr %3, align 8
  %123 = getelementptr inbounds %struct.Curl_URL, ptr %122, i32 0, i32 6
  %124 = load ptr, ptr %123, align 8
  %125 = call ptr %121(ptr noundef %124)
  %126 = load ptr, ptr %4, align 8
  %127 = getelementptr inbounds %struct.Curl_URL, ptr %126, i32 0, i32 6
  store ptr %125, ptr %127, align 8
  %128 = load ptr, ptr %4, align 8
  %129 = getelementptr inbounds %struct.Curl_URL, ptr %128, i32 0, i32 6
  %130 = load ptr, ptr %129, align 8
  %131 = icmp ne ptr %130, null
  br i1 %131, label %133, label %132

132:                                              ; preds = %120
  br label %227

133:                                              ; preds = %120
  br label %134

134:                                              ; preds = %133, %115
  br label %135

135:                                              ; preds = %134
  br label %136

136:                                              ; preds = %135
  %137 = load ptr, ptr %3, align 8
  %138 = getelementptr inbounds %struct.Curl_URL, ptr %137, i32 0, i32 7
  %139 = load ptr, ptr %138, align 8
  %140 = icmp ne ptr %139, null
  br i1 %140, label %141, label %155

141:                                              ; preds = %136
  %142 = load ptr, ptr @Curl_cstrdup, align 8
  %143 = load ptr, ptr %3, align 8
  %144 = getelementptr inbounds %struct.Curl_URL, ptr %143, i32 0, i32 7
  %145 = load ptr, ptr %144, align 8
  %146 = call ptr %142(ptr noundef %145)
  %147 = load ptr, ptr %4, align 8
  %148 = getelementptr inbounds %struct.Curl_URL, ptr %147, i32 0, i32 7
  store ptr %146, ptr %148, align 8
  %149 = load ptr, ptr %4, align 8
  %150 = getelementptr inbounds %struct.Curl_URL, ptr %149, i32 0, i32 7
  %151 = load ptr, ptr %150, align 8
  %152 = icmp ne ptr %151, null
  br i1 %152, label %154, label %153

153:                                              ; preds = %141
  br label %227

154:                                              ; preds = %141
  br label %155

155:                                              ; preds = %154, %136
  br label %156

156:                                              ; preds = %155
  br label %157

157:                                              ; preds = %156
  %158 = load ptr, ptr %3, align 8
  %159 = getelementptr inbounds %struct.Curl_URL, ptr %158, i32 0, i32 8
  %160 = load ptr, ptr %159, align 8
  %161 = icmp ne ptr %160, null
  br i1 %161, label %162, label %176

162:                                              ; preds = %157
  %163 = load ptr, ptr @Curl_cstrdup, align 8
  %164 = load ptr, ptr %3, align 8
  %165 = getelementptr inbounds %struct.Curl_URL, ptr %164, i32 0, i32 8
  %166 = load ptr, ptr %165, align 8
  %167 = call ptr %163(ptr noundef %166)
  %168 = load ptr, ptr %4, align 8
  %169 = getelementptr inbounds %struct.Curl_URL, ptr %168, i32 0, i32 8
  store ptr %167, ptr %169, align 8
  %170 = load ptr, ptr %4, align 8
  %171 = getelementptr inbounds %struct.Curl_URL, ptr %170, i32 0, i32 8
  %172 = load ptr, ptr %171, align 8
  %173 = icmp ne ptr %172, null
  br i1 %173, label %175, label %174

174:                                              ; preds = %162
  br label %227

175:                                              ; preds = %162
  br label %176

176:                                              ; preds = %175, %157
  br label %177

177:                                              ; preds = %176
  br label %178

178:                                              ; preds = %177
  %179 = load ptr, ptr %3, align 8
  %180 = getelementptr inbounds %struct.Curl_URL, ptr %179, i32 0, i32 9
  %181 = load ptr, ptr %180, align 8
  %182 = icmp ne ptr %181, null
  br i1 %182, label %183, label %197

183:                                              ; preds = %178
  %184 = load ptr, ptr @Curl_cstrdup, align 8
  %185 = load ptr, ptr %3, align 8
  %186 = getelementptr inbounds %struct.Curl_URL, ptr %185, i32 0, i32 9
  %187 = load ptr, ptr %186, align 8
  %188 = call ptr %184(ptr noundef %187)
  %189 = load ptr, ptr %4, align 8
  %190 = getelementptr inbounds %struct.Curl_URL, ptr %189, i32 0, i32 9
  store ptr %188, ptr %190, align 8
  %191 = load ptr, ptr %4, align 8
  %192 = getelementptr inbounds %struct.Curl_URL, ptr %191, i32 0, i32 9
  %193 = load ptr, ptr %192, align 8
  %194 = icmp ne ptr %193, null
  br i1 %194, label %196, label %195

195:                                              ; preds = %183
  br label %227

196:                                              ; preds = %183
  br label %197

197:                                              ; preds = %196, %178
  br label %198

198:                                              ; preds = %197
  br label %199

199:                                              ; preds = %198
  %200 = load ptr, ptr %3, align 8
  %201 = getelementptr inbounds %struct.Curl_URL, ptr %200, i32 0, i32 5
  %202 = load ptr, ptr %201, align 8
  %203 = icmp ne ptr %202, null
  br i1 %203, label %204, label %218

204:                                              ; preds = %199
  %205 = load ptr, ptr @Curl_cstrdup, align 8
  %206 = load ptr, ptr %3, align 8
  %207 = getelementptr inbounds %struct.Curl_URL, ptr %206, i32 0, i32 5
  %208 = load ptr, ptr %207, align 8
  %209 = call ptr %205(ptr noundef %208)
  %210 = load ptr, ptr %4, align 8
  %211 = getelementptr inbounds %struct.Curl_URL, ptr %210, i32 0, i32 5
  store ptr %209, ptr %211, align 8
  %212 = load ptr, ptr %4, align 8
  %213 = getelementptr inbounds %struct.Curl_URL, ptr %212, i32 0, i32 5
  %214 = load ptr, ptr %213, align 8
  %215 = icmp ne ptr %214, null
  br i1 %215, label %217, label %216

216:                                              ; preds = %204
  br label %227

217:                                              ; preds = %204
  br label %218

218:                                              ; preds = %217, %199
  br label %219

219:                                              ; preds = %218
  %220 = load ptr, ptr %3, align 8
  %221 = getelementptr inbounds %struct.Curl_URL, ptr %220, i32 0, i32 10
  %222 = load i64, ptr %221, align 8
  %223 = load ptr, ptr %4, align 8
  %224 = getelementptr inbounds %struct.Curl_URL, ptr %223, i32 0, i32 10
  store i64 %222, ptr %224, align 8
  br label %225

225:                                              ; preds = %219, %1
  %226 = load ptr, ptr %4, align 8
  store ptr %226, ptr %2, align 8
  br label %229

227:                                              ; preds = %216, %195, %174, %153, %132, %111, %90, %69, %48, %27
  %228 = load ptr, ptr %4, align 8
  call void @curl_url_cleanup(ptr noundef %228)
  store ptr null, ptr %2, align 8
  br label %229

229:                                              ; preds = %227, %225
  %230 = load ptr, ptr %2, align 8
  ret ptr %230
}