; Function Attrs: nounwind uwtable
define dso_local ptr @curl_url_dup(ptr noundef readonly captures(none) %0) local_unnamed_addr #0 {
  %2 = load ptr, ptr @Curl_ccalloc, align 8
  %3 = tail call ptr %2(i64 noundef 1, i64 noundef 88) #10
  %.not = icmp eq ptr %3, null
  br i1 %.not, label %106, label %4

4:                                                ; preds = %1
  %5 = load ptr, ptr %0, align 8
  %.not57 = icmp eq ptr %5, null
  br i1 %.not57, label %9, label %6

6:                                                ; preds = %4
  %7 = load ptr, ptr @Curl_cstrdup, align 8
  %8 = tail call ptr %7(ptr noundef nonnull %5) #10
  store ptr %8, ptr %3, align 8
  %.not58 = icmp eq ptr %8, null
  br i1 %.not58, label %curl_url_cleanup.exit, label %9

9:                                                ; preds = %6, %4
  %10 = getelementptr inbounds nuw i8, ptr %0, i64 8
  %11 = load ptr, ptr %10, align 8
  %.not59 = icmp eq ptr %11, null
  br i1 %.not59, label %16, label %12

12:                                               ; preds = %9
  %13 = load ptr, ptr @Curl_cstrdup, align 8
  %14 = tail call ptr %13(ptr noundef nonnull %11) #10
  %15 = getelementptr inbounds nuw i8, ptr %3, i64 8
  store ptr %14, ptr %15, align 8
  %.not60 = icmp eq ptr %14, null
  br i1 %.not60, label %curl_url_cleanup.exit, label %16

16:                                               ; preds = %12, %9
  %17 = getelementptr inbounds nuw i8, ptr %0, i64 16
  %18 = load ptr, ptr %17, align 8
  %.not61 = icmp eq ptr %18, null
  br i1 %.not61, label %23, label %19

19:                                               ; preds = %16
  %20 = load ptr, ptr @Curl_cstrdup, align 8
  %21 = tail call ptr %20(ptr noundef nonnull %18) #10
  %22 = getelementptr inbounds nuw i8, ptr %3, i64 16
  store ptr %21, ptr %22, align 8
  %.not62 = icmp eq ptr %21, null
  br i1 %.not62, label %curl_url_cleanup.exit, label %23

23:                                               ; preds = %19, %16
  %24 = getelementptr inbounds nuw i8, ptr %0, i64 24
  %25 = load ptr, ptr %24, align 8
  %.not63 = icmp eq ptr %25, null
  br i1 %.not63, label %30, label %26

26:                                               ; preds = %23
  %27 = load ptr, ptr @Curl_cstrdup, align 8
  %28 = tail call ptr %27(ptr noundef nonnull %25) #10
  %29 = getelementptr inbounds nuw i8, ptr %3, i64 24
  store ptr %28, ptr %29, align 8
  %.not64 = icmp eq ptr %28, null
  br i1 %.not64, label %curl_url_cleanup.exit, label %30

30:                                               ; preds = %26, %23
  %31 = getelementptr inbounds nuw i8, ptr %0, i64 32
  %32 = load ptr, ptr %31, align 8
  %.not65 = icmp eq ptr %32, null
  br i1 %.not65, label %37, label %33

33:                                               ; preds = %30
  %34 = load ptr, ptr @Curl_cstrdup, align 8
  %35 = tail call ptr %34(ptr noundef nonnull %32) #10
  %36 = getelementptr inbounds nuw i8, ptr %3, i64 32
  store ptr %35, ptr %36, align 8
  %.not66 = icmp eq ptr %35, null
  br i1 %.not66, label %curl_url_cleanup.exit, label %37

37:                                               ; preds = %33, %30
  %38 = getelementptr inbounds nuw i8, ptr %0, i64 48
  %39 = load ptr, ptr %38, align 8
  %.not67 = icmp eq ptr %39, null
  br i1 %.not67, label %44, label %40

40:                                               ; preds = %37
  %41 = load ptr, ptr @Curl_cstrdup, align 8
  %42 = tail call ptr %41(ptr noundef nonnull %39) #10
  %43 = getelementptr inbounds nuw i8, ptr %3, i64 48
  store ptr %42, ptr %43, align 8
  %.not68 = icmp eq ptr %42, null
  br i1 %.not68, label %curl_url_cleanup.exit, label %44

44:                                               ; preds = %40, %37
  %45 = getelementptr inbounds nuw i8, ptr %0, i64 56
  %46 = load ptr, ptr %45, align 8
  %.not69 = icmp eq ptr %46, null
  br i1 %.not69, label %51, label %47

47:                                               ; preds = %44
  %48 = load ptr, ptr @Curl_cstrdup, align 8
  %49 = tail call ptr %48(ptr noundef nonnull %46) #10
  %50 = getelementptr inbounds nuw i8, ptr %3, i64 56
  store ptr %49, ptr %50, align 8
  %.not70 = icmp eq ptr %49, null
  br i1 %.not70, label %curl_url_cleanup.exit, label %51

51:                                               ; preds = %47, %44
  %52 = getelementptr inbounds nuw i8, ptr %0, i64 64
  %53 = load ptr, ptr %52, align 8
  %.not71 = icmp eq ptr %53, null
  br i1 %.not71, label %58, label %54

54:                                               ; preds = %51
  %55 = load ptr, ptr @Curl_cstrdup, align 8
  %56 = tail call ptr %55(ptr noundef nonnull %53) #10
  %57 = getelementptr inbounds nuw i8, ptr %3, i64 64
  store ptr %56, ptr %57, align 8
  %.not72 = icmp eq ptr %56, null
  br i1 %.not72, label %curl_url_cleanup.exit, label %58

58:                                               ; preds = %54, %51
  %59 = getelementptr inbounds nuw i8, ptr %0, i64 72
  %60 = load ptr, ptr %59, align 8
  %.not73 = icmp eq ptr %60, null
  br i1 %.not73, label %65, label %61

61:                                               ; preds = %58
  %62 = load ptr, ptr @Curl_cstrdup, align 8
  %63 = tail call ptr %62(ptr noundef nonnull %60) #10
  %64 = getelementptr inbounds nuw i8, ptr %3, i64 72
  store ptr %63, ptr %64, align 8
  %.not74 = icmp eq ptr %63, null
  br i1 %.not74, label %curl_url_cleanup.exit, label %65

65:                                               ; preds = %61, %58
  %66 = getelementptr inbounds nuw i8, ptr %0, i64 40
  %67 = load ptr, ptr %66, align 8
  %.not75 = icmp eq ptr %67, null
  br i1 %.not75, label %72, label %68

68:                                               ; preds = %65
  %69 = load ptr, ptr @Curl_cstrdup, align 8
  %70 = tail call ptr %69(ptr noundef nonnull %67) #10
  %71 = getelementptr inbounds nuw i8, ptr %3, i64 40
  store ptr %70, ptr %71, align 8
  %.not76 = icmp eq ptr %70, null
  br i1 %.not76, label %curl_url_cleanup.exit, label %72

72:                                               ; preds = %65, %68
  %73 = getelementptr inbounds nuw i8, ptr %0, i64 80
  %74 = load i64, ptr %73, align 8
  %75 = getelementptr inbounds nuw i8, ptr %3, i64 80
  store i64 %74, ptr %75, align 8
  br label %106

curl_url_cleanup.exit:                            ; preds = %68, %61, %54, %47, %40, %33, %26, %19, %12, %6
  %76 = load ptr, ptr @Curl_cfree, align 8
  %77 = load ptr, ptr %3, align 8
  tail call void %76(ptr noundef %77) #10
  %78 = load ptr, ptr @Curl_cfree, align 8
  %79 = getelementptr inbounds nuw i8, ptr %3, i64 8
  %80 = load ptr, ptr %79, align 8
  tail call void %78(ptr noundef %80) #10
  %81 = load ptr, ptr @Curl_cfree, align 8
  %82 = getelementptr inbounds nuw i8, ptr %3, i64 16
  %83 = load ptr, ptr %82, align 8
  tail call void %81(ptr noundef %83) #10
  %84 = load ptr, ptr @Curl_cfree, align 8
  %85 = getelementptr inbounds nuw i8, ptr %3, i64 24
  %86 = load ptr, ptr %85, align 8
  tail call void %84(ptr noundef %86) #10
  %87 = load ptr, ptr @Curl_cfree, align 8
  %88 = getelementptr inbounds nuw i8, ptr %3, i64 32
  %89 = load ptr, ptr %88, align 8
  tail call void %87(ptr noundef %89) #10
  %90 = load ptr, ptr @Curl_cfree, align 8
  %91 = getelementptr inbounds nuw i8, ptr %3, i64 40
  %92 = load ptr, ptr %91, align 8
  tail call void %90(ptr noundef %92) #10
  %93 = load ptr, ptr @Curl_cfree, align 8
  %94 = getelementptr inbounds nuw i8, ptr %3, i64 48
  %95 = load ptr, ptr %94, align 8
  tail call void %93(ptr noundef %95) #10
  %96 = load ptr, ptr @Curl_cfree, align 8
  %97 = getelementptr inbounds nuw i8, ptr %3, i64 56
  %98 = load ptr, ptr %97, align 8
  tail call void %96(ptr noundef %98) #10
  %99 = load ptr, ptr @Curl_cfree, align 8
  %100 = getelementptr inbounds nuw i8, ptr %3, i64 64
  %101 = load ptr, ptr %100, align 8
  tail call void %99(ptr noundef %101) #10
  %102 = load ptr, ptr @Curl_cfree, align 8
  %103 = getelementptr inbounds nuw i8, ptr %3, i64 72
  %104 = load ptr, ptr %103, align 8
  tail call void %102(ptr noundef %104) #10
  %105 = load ptr, ptr @Curl_cfree, align 8
  tail call void %105(ptr noundef nonnull %3) #10
  br label %106

106:                                              ; preds = %1, %72, %curl_url_cleanup.exit
  %.0 = phi ptr [ null, %curl_url_cleanup.exit ], [ %3, %72 ], [ null, %1 ]
  ret ptr %.0
}